; Function Attrs: mustprogress nofree norecurse nosync nounwind sspstrong willreturn memory(argmem: read) uwtable
define dso_local zeroext i1 @qemu_chr_has_feature(ptr noundef readonly captures(none) %chr, i32 noundef %feature) local_unnamed_addr #2 {
entry:
  %conv = zext i32 %feature to i64
  %features = getelementptr inbounds nuw i8, ptr %chr, i64 144
  %div2.i = lshr i64 %conv, 6
  %arrayidx.i = getelementptr i64, ptr %features, i64 %div2.i
  %0 = load i64, ptr %arrayidx.i, align 8
  %and.i = and i64 %conv, 63
  %1 = shl nuw i64 1, %and.i
  %2 = and i64 %0, %1
  %tobool = icmp ne i64 %2, 0
  ret i1 %tobool
}